target datalayout = "e-m:e-p270:32:32-p271:32:32-p272:64:64-i64:64-i128:128-f80:128-n8:16:32:64-S128"
target triple = "x86_64-unknown-linux-gnu"

%"class.OpenImageIO_v2_6_0::ImageOutput" = type { ptr, %"class.OpenImageIO_v2_6_0::ImageSpec", %"class.std::unique_ptr" }
%"class.OpenImageIO_v2_6_0::ImageSpec" = type { i32, i32, i32, i32, i32, i32, i32, i32, i32, i32, i32, i32, i32, i32, i32, i32, %"struct.OpenImageIO_v2_6_0::TypeDesc", %"class.std::vector", %"class.std::vector.0", i32, i32, i8, %"class.OpenImageIO_v2_6_0::ParamValueList" }
%"struct.OpenImageIO_v2_6_0::TypeDesc" = type { i8, i8, i8, i8, i32 }
%"class.std::vector" = type { %"struct.std::_Vector_base" }
%"struct.std::_Vector_base" = type { %"struct.std::_Vector_base<OpenImageIO_v2_6_0::TypeDesc, std::allocator<OpenImageIO_v2_6_0::TypeDesc>>::_Vector_impl" }
%"struct.std::_Vector_base<OpenImageIO_v2_6_0::TypeDesc, std::allocator<OpenImageIO_v2_6_0::TypeDesc>>::_Vector_impl" = type { %"struct.std::_Vector_base<OpenImageIO_v2_6_0::TypeDesc, std::allocator<OpenImageIO_v2_6_0::TypeDesc>>::_Vector_impl_data" }
%"struct.std::_Vector_base<OpenImageIO_v2_6_0::TypeDesc, std::allocator<OpenImageIO_v2_6_0::TypeDesc>>::_Vector_impl_data" = type { ptr, ptr, ptr }
%"class.std::vector.0" = type { %"struct.std::_Vector_base.1" }
%"struct.std::_Vector_base.1" = type { %"struct.std::_Vector_base<std::__cxx11::basic_string<char>, std::allocator<std::__cxx11::basic_string<char>>>::_Vector_impl" }
%"struct.std::_Vector_base<std::__cxx11::basic_string<char>, std::allocator<std::__cxx11::basic_string<char>>>::_Vector_impl" = type { %"struct.std::_Vector_base<std::__cxx11::basic_string<char>, std::allocator<std::__cxx11::basic_string<char>>>::_Vector_impl_data" }
%"struct.std::_Vector_base<std::__cxx11::basic_string<char>, std::allocator<std::__cxx11::basic_string<char>>>::_Vector_impl_data" = type { ptr, ptr, ptr }
%"class.OpenImageIO_v2_6_0::ParamValueList" = type { %"class.std::vector.5" }
%"class.std::vector.5" = type { %"struct.std::_Vector_base.6" }
%"struct.std::_Vector_base.6" = type { %"struct.std::_Vector_base<OpenImageIO_v2_6_0::ParamValue, std::allocator<OpenImageIO_v2_6_0::ParamValue>>::_Vector_impl" }
%"struct.std::_Vector_base<OpenImageIO_v2_6_0::ParamValue, std::allocator<OpenImageIO_v2_6_0::ParamValue>>::_Vector_impl" = type { %"struct.std::_Vector_base<OpenImageIO_v2_6_0::ParamValue, std::allocator<OpenImageIO_v2_6_0::ParamValue>>::_Vector_impl_data" }
%"struct.std::_Vector_base<OpenImageIO_v2_6_0::ParamValue, std::allocator<OpenImageIO_v2_6_0::ParamValue>>::_Vector_impl_data" = type { ptr, ptr, ptr }
%"class.std::unique_ptr" = type { %"struct.std::__uniq_ptr_data" }
%"struct.std::__uniq_ptr_data" = type { %"class.std::__uniq_ptr_impl" }
%"class.std::__uniq_ptr_impl" = type { %"class.std::tuple" }
%"class.std::tuple" = type { %"struct.std::_Tuple_impl" }
%"struct.std::_Tuple_impl" = type { %"struct.std::_Tuple_impl.10", %"struct.std::_Head_base.11" }
%"struct.std::_Tuple_impl.10" = type { %"struct.std::_Head_base" }
%"struct.std::_Head_base" = type { ptr }
%"struct.std::_Head_base.11" = type { ptr }

; Function Attrs: mustprogress uwtable
define hidden noundef zeroext i1 @_ZN18OpenImageIO_v2_6_09PNMOutput16write_raw_binaryEPKhl(ptr noundef nonnull align 8 dereferenceable(280) %this, ptr noundef %data, i64 noundef %stride) #6 align 2 {
entry:
  %retval = alloca i1, align 1
  %this.addr = alloca ptr, align 8
  %data.addr = alloca ptr, align 8
  %stride.addr = alloca i64, align 8
  %x = alloca i32, align 4
  %val = alloca i8, align 1
  %bit = alloca i32, align 4
  store ptr %this, ptr %this.addr, align 8
  store ptr %data, ptr %data.addr, align 8
  store i64 %stride, ptr %stride.addr, align 8
  %this1 = load ptr, ptr %this.addr, align 8
  store i32 0, ptr %x, align 4
  br label %for.cond

for.cond:                                         ; preds = %if.end, %entry
  %0 = load i32, ptr %x, align 4
  %m_spec = getelementptr inbounds %"class.OpenImageIO_v2_6_0::ImageOutput", ptr %this1, i32 0, i32 1
  %width = getelementptr inbounds %"class.OpenImageIO_v2_6_0::ImageSpec", ptr %m_spec, i32 0, i32 3
  %1 = load i32, ptr %width, align 4
  %cmp = icmp slt i32 %0, %1
  br i1 %cmp, label %for.body, label %for.end10

for.body:                                         ; preds = %for.cond
  store i8 0, ptr %val, align 1
  store i32 7, ptr %bit, align 4
  br label %for.cond2

for.cond2:                                        ; preds = %for.inc, %for.body
  %2 = load i32, ptr %bit, align 4
  %cmp3 = icmp sge i32 %2, 0
  br i1 %cmp3, label %land.rhs, label %land.end

land.rhs:                                         ; preds = %for.cond2
  %3 = load i32, ptr %x, align 4
  %m_spec4 = getelementptr inbounds %"class.OpenImageIO_v2_6_0::ImageOutput", ptr %this1, i32 0, i32 1
  %width5 = getelementptr inbounds %"class.OpenImageIO_v2_6_0::ImageSpec", ptr %m_spec4, i32 0, i32 3
  %4 = load i32, ptr %width5, align 4
  %cmp6 = icmp slt i32 %3, %4
  br label %land.end

land.end:                                         ; preds = %land.rhs, %for.cond2
  %5 = phi i1 [ false, %for.cond2 ], [ %cmp6, %land.rhs ]
  br i1 %5, label %for.body7, label %for.end

for.body7:                                        ; preds = %land.end
  %6 = load ptr, ptr %data.addr, align 8
  %7 = load i32, ptr %x, align 4
  %conv = sext i32 %7 to i64
  %8 = load i64, ptr %stride.addr, align 8
  %mul = mul nsw i64 %conv, %8
  %arrayidx = getelementptr inbounds i8, ptr %6, i64 %mul
  %9 = load i8, ptr %arrayidx, align 1
  %tobool = icmp ne i8 %9, 0
  br i1 %tobool, label %cond.true, label %cond.false

cond.true:                                        ; preds = %for.body7
  br label %cond.end

cond.false:                                       ; preds = %for.body7
  %10 = load i32, ptr %bit, align 4
  %shl = shl i32 1, %10
  br label %cond.end

cond.end:                                         ; preds = %cond.false, %cond.true
  %cond = phi i32 [ 0, %cond.true ], [ %shl, %cond.false ]
  %11 = load i8, ptr %val, align 1
  %conv8 = zext i8 %11 to i32
  %add = add nsw i32 %conv8, %cond
  %conv9 = trunc i32 %add to i8
  store i8 %conv9, ptr %val, align 1
  br label %for.inc

for.inc:                                          ; preds = %cond.end
  %12 = load i32, ptr %x, align 4
  %inc = add nsw i32 %12, 1
  store i32 %inc, ptr %x, align 4
  %13 = load i32, ptr %bit, align 4
  %dec = add nsw i32 %13, -1
  store i32 %dec, ptr %bit, align 4
  br label %for.cond2, !llvm.loop !6

for.end:                                          ; preds = %land.end
  %call = call noundef zeroext i1 @_ZN18OpenImageIO_v2_6_011ImageOutput7iowriteEPKvmm(ptr noundef nonnull align 8 dereferenceable(184) %this1, ptr noundef %val, i64 noundef 1, i64 noundef 1)
  br i1 %call, label %if.end, label %if.then

if.then:                                          ; preds = %for.end
  store i1 false, ptr %retval, align 1
  br label %return

if.end:                                           ; preds = %for.end
  br label %for.cond, !llvm.loop !7

for.end10:                                        ; preds = %for.cond
  store i1 true, ptr %retval, align 1
  br label %return

return:                                           ; preds = %for.end10, %if.then
  %14 = load i1, ptr %retval, align 1
  ret i1 %14
}