; Function Attrs: mustprogress uwtable
define hidden noundef zeroext i1 @_ZN18OpenImageIO_v2_6_09PNMOutput16write_raw_binaryEPKhl(ptr noundef nonnull align 8 dereferenceable(280) %this, ptr nocapture noundef readonly %data, i64 noundef %stride) local_unnamed_addr #5 align 2 {
entry:
  %val = alloca i8, align 1
  %width = getelementptr inbounds i8, ptr %this, i64 20
  br label %for.cond

for.cond:                                         ; preds = %for.end, %entry
  %x.0 = phi i32 [ 0, %entry ], [ %6, %for.end ]
  %0 = load i32, ptr %width, align 4
  %cmp.not = icmp sge i32 %x.0, %0
  br i1 %cmp.not, label %return, label %for.body

for.body:                                         ; preds = %for.cond
  %1 = sext i32 %x.0 to i64
  %2 = sext i32 %0 to i64
  br label %for.body7

for.body7:                                        ; preds = %for.body, %for.body7
  %indvars.iv = phi i64 [ %1, %for.body ], [ %indvars.iv.next, %for.body7 ]
  %bit.09 = phi i32 [ 7, %for.body ], [ %dec, %for.body7 ]
  %conv967 = phi i8 [ 0, %for.body ], [ %conv9, %for.body7 ]
  %mul = mul nsw i64 %indvars.iv, %stride
  %arrayidx = getelementptr inbounds i8, ptr %data, i64 %mul
  %3 = load i8, ptr %arrayidx, align 1
  %tobool.not = icmp eq i8 %3, 0
  %shl = shl nuw i32 1, %bit.09
  %4 = trunc i32 %shl to i8
  %5 = select i1 %tobool.not, i8 %4, i8 0
  %conv9 = add i8 %5, %conv967
  %indvars.iv.next = add nsw i64 %indvars.iv, 1
  %dec = add nsw i32 %bit.09, -1
  %cmp3 = icmp ne i32 %bit.09, 0
  %cmp6 = icmp slt i64 %indvars.iv.next, %2
  %or.cond = select i1 %cmp3, i1 %cmp6, i1 false
  br i1 %or.cond, label %for.body7, label %for.end, !llvm.loop !9

for.end:                                          ; preds = %for.body7
  %6 = trunc i64 %indvars.iv.next to i32
  store i8 %conv9, ptr %val, align 1
  %call = call noundef zeroext i1 @_ZN18OpenImageIO_v2_6_011ImageOutput7iowriteEPKvmm(ptr noundef nonnull align 8 dereferenceable(184) %this, ptr noundef nonnull %val, i64 noundef 1, i64 noundef 1)
  br i1 %call, label %for.cond, label %return, !llvm.loop !10

return:                                           ; preds = %for.cond, %for.end
  ret i1 %cmp.not
}